target datalayout = "e-m:e-p270:32:32-p271:32:32-p272:64:64-i64:64-i128:128-f80:128-n8:16:32:64-S128"
target triple = "x86_64-pc-linux-gnu"

%struct.llama_adapter_cvec = type { i32, i32, %"class.std::vector", %"class.std::vector.0", %"class.std::vector.5" }
%"class.std::vector" = type { %"struct.std::_Vector_base" }
%"struct.std::_Vector_base" = type { %"struct.std::_Vector_base<std::unique_ptr<ggml_context, ggml_context_deleter>, std::allocator<std::unique_ptr<ggml_context, ggml_context_deleter>>>::_Vector_impl" }
%"struct.std::_Vector_base<std::unique_ptr<ggml_context, ggml_context_deleter>, std::allocator<std::unique_ptr<ggml_context, ggml_context_deleter>>>::_Vector_impl" = type { %"struct.std::_Vector_base<std::unique_ptr<ggml_context, ggml_context_deleter>, std::allocator<std::unique_ptr<ggml_context, ggml_context_deleter>>>::_Vector_impl_data" }
%"struct.std::_Vector_base<std::unique_ptr<ggml_context, ggml_context_deleter>, std::allocator<std::unique_ptr<ggml_context, ggml_context_deleter>>>::_Vector_impl_data" = type { ptr, ptr, ptr }
%"class.std::vector.0" = type { %"struct.std::_Vector_base.1" }
%"struct.std::_Vector_base.1" = type { %"struct.std::_Vector_base<std::unique_ptr<ggml_backend_buffer, ggml_backend_buffer_deleter>, std::allocator<std::unique_ptr<ggml_backend_buffer, ggml_backend_buffer_deleter>>>::_Vector_impl" }
%"struct.std::_Vector_base<std::unique_ptr<ggml_backend_buffer, ggml_backend_buffer_deleter>, std::allocator<std::unique_ptr<ggml_backend_buffer, ggml_backend_buffer_deleter>>>::_Vector_impl" = type { %"struct.std::_Vector_base<std::unique_ptr<ggml_backend_buffer, ggml_backend_buffer_deleter>, std::allocator<std::unique_ptr<ggml_backend_buffer, ggml_backend_buffer_deleter>>>::_Vector_impl_data" }
%"struct.std::_Vector_base<std::unique_ptr<ggml_backend_buffer, ggml_backend_buffer_deleter>, std::allocator<std::unique_ptr<ggml_backend_buffer, ggml_backend_buffer_deleter>>>::_Vector_impl_data" = type { ptr, ptr, ptr }
%"class.std::vector.5" = type { %"struct.std::_Vector_base.6" }
%"struct.std::_Vector_base.6" = type { %"struct.std::_Vector_base<ggml_tensor *, std::allocator<ggml_tensor *>>::_Vector_impl" }
%"struct.std::_Vector_base<ggml_tensor *, std::allocator<ggml_tensor *>>::_Vector_impl" = type { %"struct.std::_Vector_base<ggml_tensor *, std::allocator<ggml_tensor *>>::_Vector_impl_data" }
%"struct.std::_Vector_base<ggml_tensor *, std::allocator<ggml_tensor *>>::_Vector_impl_data" = type { ptr, ptr, ptr }
%struct.llama_model = type { i32, i32, %"class.std::__cxx11::basic_string", %struct.llama_hparams, %struct.llama_vocab, ptr, ptr, ptr, ptr, ptr, ptr, ptr, ptr, ptr, ptr, ptr, ptr, ptr, ptr, ptr, ptr, %"class.std::vector.16", %struct.llama_model_params, %"class.std::unordered_map", %"class.std::vector.26", %"class.std::vector.31", i64, i64, %"class.std::unique_ptr.36" }
%"class.std::__cxx11::basic_string" = type { %"struct.std::__cxx11::basic_string<char>::_Alloc_hider", i64, %union.anon }
%"struct.std::__cxx11::basic_string<char>::_Alloc_hider" = type { ptr }
%union.anon = type { i64, [8 x i8] }
%struct.llama_hparams = type { i8, i8, i8, i8, i32, i32, i32, i32, i32, i32, i32, i32, i32, i32, i32, %struct.llama_hparams_posnet, %struct.llama_hparams_convnext, %"struct.std::array", %"struct.std::array", %"struct.std::array", i32, i32, i32, i32, i32, i32, i32, float, i8, i32, float, float, float, float, float, i32, i32, i32, i32, i32, float, float, float, i32, float, %"struct.std::array.13", i32, i32, i32, i32, i8, float, float, float, float, float, float, i8, i8, i8, i32, i32, i32, i32 }
%struct.llama_hparams_posnet = type { i32, i32 }
%struct.llama_hparams_convnext = type { i32, i32 }
%"struct.std::array" = type { [512 x i32] }
%"struct.std::array.13" = type { [4 x i32] }
%struct.llama_vocab = type { %"class.std::unique_ptr" }
%"class.std::unique_ptr" = type { %"struct.std::__uniq_ptr_data" }
%"struct.std::__uniq_ptr_data" = type { %"class.std::__uniq_ptr_impl" }
%"class.std::__uniq_ptr_impl" = type { %"class.std::tuple" }
%"class.std::tuple" = type { %"struct.std::_Tuple_impl" }
%"struct.std::_Tuple_impl" = type { %"struct.std::_Head_base.15" }
%"struct.std::_Head_base.15" = type { ptr }
%"class.std::vector.16" = type { %"struct.std::_Vector_base.17" }
%"struct.std::_Vector_base.17" = type { %"struct.std::_Vector_base<llama_layer, std::allocator<llama_layer>>::_Vector_impl" }
%"struct.std::_Vector_base<llama_layer, std::allocator<llama_layer>>::_Vector_impl" = type { %"struct.std::_Vector_base<llama_layer, std::allocator<llama_layer>>::_Vector_impl_data" }
%"struct.std::_Vector_base<llama_layer, std::allocator<llama_layer>>::_Vector_impl_data" = type { ptr, ptr, ptr }
%struct.llama_model_params = type { ptr, i32, i32, i32, ptr, ptr, ptr, ptr, i8, i8, i8, i8 }
%"class.std::unordered_map" = type { %"class.std::_Hashtable" }
%"class.std::_Hashtable" = type { ptr, i64, %"struct.std::__detail::_Hash_node_base", i64, %"struct.std::__detail::_Prime_rehash_policy", ptr }
%"struct.std::__detail::_Hash_node_base" = type { ptr }
%"struct.std::__detail::_Prime_rehash_policy" = type { float, i64 }
%"class.std::vector.26" = type { %"struct.std::_Vector_base.27" }
%"struct.std::_Vector_base.27" = type { %"struct.std::_Vector_base<ggml_backend_device *, std::allocator<ggml_backend_device *>>::_Vector_impl" }
%"struct.std::_Vector_base<ggml_backend_device *, std::allocator<ggml_backend_device *>>::_Vector_impl" = type { %"struct.std::_Vector_base<ggml_backend_device *, std::allocator<ggml_backend_device *>>::_Vector_impl_data" }
%"struct.std::_Vector_base<ggml_backend_device *, std::allocator<ggml_backend_device *>>::_Vector_impl_data" = type { ptr, ptr, ptr }
%"class.std::vector.31" = type { %"struct.std::_Vector_base.32" }
%"struct.std::_Vector_base.32" = type { %"struct.std::_Vector_base<std::pair<std::__cxx11::basic_string<char>, ggml_tensor *>, std::allocator<std::pair<std::__cxx11::basic_string<char>, ggml_tensor *>>>::_Vector_impl" }
%"struct.std::_Vector_base<std::pair<std::__cxx11::basic_string<char>, ggml_tensor *>, std::allocator<std::pair<std::__cxx11::basic_string<char>, ggml_tensor *>>>::_Vector_impl" = type { %"struct.std::_Vector_base<std::pair<std::__cxx11::basic_string<char>, ggml_tensor *>, std::allocator<std::pair<std::__cxx11::basic_string<char>, ggml_tensor *>>>::_Vector_impl_data" }
%"struct.std::_Vector_base<std::pair<std::__cxx11::basic_string<char>, ggml_tensor *>, std::allocator<std::pair<std::__cxx11::basic_string<char>, ggml_tensor *>>>::_Vector_impl_data" = type { ptr, ptr, ptr }
%"class.std::unique_ptr.36" = type { %"struct.std::__uniq_ptr_data.37" }
%"struct.std::__uniq_ptr_data.37" = type { %"class.std::__uniq_ptr_impl.38" }
%"class.std::__uniq_ptr_impl.38" = type { %"class.std::tuple.39" }
%"class.std::tuple.39" = type { %"struct.std::_Tuple_impl.40" }
%"struct.std::_Tuple_impl.40" = type { %"struct.std::_Head_base.43" }
%"struct.std::_Head_base.43" = type { ptr }
%"class.__gnu_cxx::__normal_iterator.136" = type { ptr }

@.str.7 = private unnamed_addr constant [48 x i8] c"%s: control vector n_embd does not match model\0A\00", align 1
@__func__._ZN18llama_adapter_cvec5applyERK11llama_modelPKfmiii = private unnamed_addr constant [6 x i8] c"apply\00", align 1

; Function Attrs: mustprogress nounwind uwtable
define linkonce_odr noundef nonnull align 8 dereferenceable(8) ptr @_ZNK9__gnu_cxx17__normal_iteratorIPKP11ggml_tensorSt6vectorIS2_SaIS2_EEE4baseEv(ptr noundef nonnull align 8 dereferenceable(8) %0) #0 comdat align 2 {
  %2 = alloca ptr, align 8
  store ptr %0, ptr %2, align 8, !tbaa !523
  %3 = load ptr, ptr %2, align 8
  %4 = getelementptr inbounds nuw %"class.__gnu_cxx::__normal_iterator.136", ptr %3, i32 0, i32 0
  ret ptr %4
}

; Function Attrs: mustprogress nounwind uwtable
define linkonce_odr void @_ZN9__gnu_cxx17__normal_iteratorIPKP11ggml_tensorSt6vectorIS2_SaIS2_EEEC2ERKS4_(ptr noundef nonnull align 8 dereferenceable(8) %0, ptr noundef nonnull align 8 dereferenceable(8) %1) unnamed_addr #0 comdat align 2 {
  %3 = alloca ptr, align 8
  %4 = alloca ptr, align 8
  store ptr %0, ptr %3, align 8, !tbaa !523
  store ptr %1, ptr %4, align 8, !tbaa !525
  %5 = load ptr, ptr %3, align 8
  %6 = getelementptr inbounds nuw %"class.__gnu_cxx::__normal_iterator.136", ptr %5, i32 0, i32 0
  %7 = load ptr, ptr %4, align 8, !tbaa !525
  %8 = load ptr, ptr %7, align 8, !tbaa !72
  store ptr %8, ptr %6, align 8, !tbaa !528
  ret void
}

; Function Attrs: inlinehint mustprogress nounwind uwtable
define linkonce_odr noundef zeroext i1 @_ZN9__gnu_cxxeqIPKP11ggml_tensorSt6vectorIS2_SaIS2_EEEEbRKNS_17__normal_iteratorIT_T0_EESD_(ptr noundef nonnull align 8 dereferenceable(8) %0, ptr noundef nonnull align 8 dereferenceable(8) %1) #13 comdat {
  %3 = alloca ptr, align 8
  %4 = alloca ptr, align 8
  store ptr %0, ptr %3, align 8, !tbaa !523
  store ptr %1, ptr %4, align 8, !tbaa !523
  %5 = load ptr, ptr %3, align 8, !tbaa !523
  %6 = call noundef nonnull align 8 dereferenceable(8) ptr @_ZNK9__gnu_cxx17__normal_iteratorIPKP11ggml_tensorSt6vectorIS2_SaIS2_EEE4baseEv(ptr noundef nonnull align 8 dereferenceable(8) %5) #17
  %7 = load ptr, ptr %6, align 8, !tbaa !72
  %8 = load ptr, ptr %4, align 8, !tbaa !523
  %9 = call noundef nonnull align 8 dereferenceable(8) ptr @_ZNK9__gnu_cxx17__normal_iteratorIPKP11ggml_tensorSt6vectorIS2_SaIS2_EEE4baseEv(ptr noundef nonnull align 8 dereferenceable(8) %8) #17
  %10 = load ptr, ptr %9, align 8, !tbaa !72
  %11 = icmp eq ptr %7, %10
  ret i1 %11
}

; Function Attrs: mustprogress nounwind uwtable
define linkonce_odr ptr @_ZNKSt6vectorIP11ggml_tensorSaIS1_EE3endEv(ptr noundef nonnull align 8 dereferenceable(24) %0) #0 comdat align 2 {
  %2 = alloca %"class.__gnu_cxx::__normal_iterator.136", align 8
  %3 = alloca ptr, align 8
  store ptr %0, ptr %3, align 8, !tbaa !31
  %4 = load ptr, ptr %3, align 8
  %5 = getelementptr inbounds nuw %"struct.std::_Vector_base.6", ptr %4, i32 0, i32 0
  %6 = getelementptr inbounds nuw %"struct.std::_Vector_base<ggml_tensor *, std::allocator<ggml_tensor *>>::_Vector_impl_data", ptr %5, i32 0, i32 1
  call void @_ZN9__gnu_cxx17__normal_iteratorIPKP11ggml_tensorSt6vectorIS2_SaIS2_EEEC2ERKS4_(ptr noundef nonnull align 8 dereferenceable(8) %2, ptr noundef nonnull align 8 dereferenceable(8) %6) #17
  %7 = getelementptr inbounds nuw %"class.__gnu_cxx::__normal_iterator.136", ptr %2, i32 0, i32 0
  %8 = load ptr, ptr %7, align 8
  ret ptr %8
}

; Function Attrs: mustprogress nounwind uwtable
define linkonce_odr ptr @_ZNKSt6vectorIP11ggml_tensorSaIS1_EE5beginEv(ptr noundef nonnull align 8 dereferenceable(24) %0) #0 comdat align 2 {
  %2 = alloca %"class.__gnu_cxx::__normal_iterator.136", align 8
  %3 = alloca ptr, align 8
  store ptr %0, ptr %3, align 8, !tbaa !31
  %4 = load ptr, ptr %3, align 8
  %5 = getelementptr inbounds nuw %"struct.std::_Vector_base.6", ptr %4, i32 0, i32 0
  %6 = getelementptr inbounds nuw %"struct.std::_Vector_base<ggml_tensor *, std::allocator<ggml_tensor *>>::_Vector_impl_data", ptr %5, i32 0, i32 0
  call void @_ZN9__gnu_cxx17__normal_iteratorIPKP11ggml_tensorSt6vectorIS2_SaIS2_EEEC2ERKS4_(ptr noundef nonnull align 8 dereferenceable(8) %2, ptr noundef nonnull align 8 dereferenceable(8) %6) #17
  %7 = getelementptr inbounds nuw %"class.__gnu_cxx::__normal_iterator.136", ptr %2, i32 0, i32 0
  %8 = load ptr, ptr %7, align 8
  ret ptr %8
}

; Function Attrs: mustprogress nounwind uwtable
define linkonce_odr noundef nonnull align 8 dereferenceable(8) ptr @_ZNSt6vectorIP11ggml_tensorSaIS1_EEixEm(ptr noundef nonnull align 8 dereferenceable(24) %0, i64 noundef %1) #0 comdat align 2 {
  %3 = alloca ptr, align 8
  %4 = alloca i64, align 8
  store ptr %0, ptr %3, align 8, !tbaa !31
  store i64 %1, ptr %4, align 8, !tbaa !35
  %5 = load ptr, ptr %3, align 8
  %6 = getelementptr inbounds nuw %"struct.std::_Vector_base.6", ptr %5, i32 0, i32 0
  %7 = getelementptr inbounds nuw %"struct.std::_Vector_base<ggml_tensor *, std::allocator<ggml_tensor *>>::_Vector_impl_data", ptr %6, i32 0, i32 0
  %8 = load ptr, ptr %7, align 8, !tbaa !34
  %9 = load i64, ptr %4, align 8, !tbaa !35
  %10 = getelementptr inbounds nuw ptr, ptr %8, i64 %9
  ret ptr %10
}

; Function Attrs: mustprogress nounwind uwtable
define linkonce_odr noundef zeroext i1 @_ZNKSt6vectorIP11ggml_tensorSaIS1_EE5emptyEv(ptr noundef nonnull align 8 dereferenceable(24) %0) #0 comdat align 2 {
  %2 = alloca ptr, align 8
  %3 = alloca %"class.__gnu_cxx::__normal_iterator.136", align 8
  %4 = alloca %"class.__gnu_cxx::__normal_iterator.136", align 8
  store ptr %0, ptr %2, align 8, !tbaa !31
  %5 = load ptr, ptr %2, align 8
  call void @llvm.lifetime.start.p0(i64 8, ptr %3) #17
  %6 = call ptr @_ZNKSt6vectorIP11ggml_tensorSaIS1_EE5beginEv(ptr noundef nonnull align 8 dereferenceable(24) %5) #17
  %7 = getelementptr inbounds nuw %"class.__gnu_cxx::__normal_iterator.136", ptr %3, i32 0, i32 0
  store ptr %6, ptr %7, align 8
  call void @llvm.lifetime.start.p0(i64 8, ptr %4) #17
  %8 = call ptr @_ZNKSt6vectorIP11ggml_tensorSaIS1_EE3endEv(ptr noundef nonnull align 8 dereferenceable(24) %5) #17
  %9 = getelementptr inbounds nuw %"class.__gnu_cxx::__normal_iterator.136", ptr %4, i32 0, i32 0
  store ptr %8, ptr %9, align 8
  %10 = call noundef zeroext i1 @_ZN9__gnu_cxxeqIPKP11ggml_tensorSt6vectorIS2_SaIS2_EEEEbRKNS_17__normal_iteratorIT_T0_EESD_(ptr noundef nonnull align 8 dereferenceable(8) %3, ptr noundef nonnull align 8 dereferenceable(8) %4) #17
  call void @llvm.lifetime.end.p0(i64 8, ptr %4) #17
  call void @llvm.lifetime.end.p0(i64 8, ptr %3) #17
  ret i1 %10
}

; Function Attrs: mustprogress uwtable
define noundef i32 @_ZN18llama_adapter_cvec5applyERK11llama_modelPKfmiii(ptr noundef nonnull align 8 dereferenceable(80) %0, ptr noundef nonnull align 8 dereferenceable(6784) %1, ptr noundef %2, i64 noundef %3, i32 noundef %4, i32 noundef %5, i32 noundef %6) #1 align 2 {
  %8 = alloca i32, align 4
  %9 = alloca ptr, align 8
  %10 = alloca ptr, align 8
  %11 = alloca ptr, align 8
  %12 = alloca i64, align 8
  %13 = alloca i32, align 4
  %14 = alloca i32, align 4
  %15 = alloca i32, align 4
  %16 = alloca ptr, align 8
  %17 = alloca i32, align 4
  %18 = alloca i64, align 8
  %19 = alloca i64, align 8
  store ptr %0, ptr %9, align 8, !tbaa !3
  store ptr %1, ptr %10, align 8, !tbaa !39
  store ptr %2, ptr %11, align 8, !tbaa !94
  store i64 %3, ptr %12, align 8, !tbaa !35
  store i32 %4, ptr %13, align 4, !tbaa !8
  store i32 %5, ptr %14, align 4, !tbaa !8
  store i32 %6, ptr %15, align 4, !tbaa !8
  %20 = load ptr, ptr %9, align 8
  call void @llvm.lifetime.start.p0(i64 8, ptr %16) #17
  %21 = load ptr, ptr %10, align 8, !tbaa !39
  %22 = getelementptr inbounds nuw %struct.llama_model, ptr %21, i32 0, i32 3
  store ptr %22, ptr %16, align 8, !tbaa !41
  %23 = load ptr, ptr %11, align 8, !tbaa !94
  %24 = icmp eq ptr %23, null
  br i1 %24, label %25, label %28

25:                                               ; preds = %7
  %26 = getelementptr inbounds nuw %struct.llama_adapter_cvec, ptr %20, i32 0, i32 0
  store i32 -1, ptr %26, align 8, !tbaa !10
  %27 = getelementptr inbounds nuw %struct.llama_adapter_cvec, ptr %20, i32 0, i32 1
  store i32 -1, ptr %27, align 4, !tbaa !28
  store i32 0, ptr %8, align 4
  store i32 1, ptr %17, align 4
  br label %89

28:                                               ; preds = %7
  %29 = load i32, ptr %13, align 4, !tbaa !8
  %30 = load ptr, ptr %16, align 8, !tbaa !41
  %31 = getelementptr inbounds nuw %struct.llama_hparams, ptr %30, i32 0, i32 5
  %32 = load i32, ptr %31, align 4, !tbaa !60
  %33 = icmp ne i32 %29, %32
  br i1 %33, label %34, label %35

34:                                               ; preds = %28
  call void (i32, ptr, ...) @_Z18llama_log_internal14ggml_log_levelPKcz(i32 noundef 4, ptr noundef @.str.7, ptr noundef @__func__._ZN18llama_adapter_cvec5applyERK11llama_modelPKfmiii)
  store i32 1, ptr %8, align 4
  store i32 1, ptr %17, align 4
  br label %89

35:                                               ; preds = %28
  %36 = getelementptr inbounds nuw %struct.llama_adapter_cvec, ptr %20, i32 0, i32 4
  %37 = call noundef zeroext i1 @_ZNKSt6vectorIP11ggml_tensorSaIS1_EE5emptyEv(ptr noundef nonnull align 8 dereferenceable(24) %36) #17
  br i1 %37, label %38, label %43

38:                                               ; preds = %35
  %39 = load ptr, ptr %10, align 8, !tbaa !39
  %40 = call noundef zeroext i1 @_ZN18llama_adapter_cvec4initERK11llama_model(ptr noundef nonnull align 8 dereferenceable(80) %20, ptr noundef nonnull align 8 dereferenceable(6784) %39)
  br i1 %40, label %42, label %41

41:                                               ; preds = %38
  store i32 1, ptr %8, align 4
  store i32 1, ptr %17, align 4
  br label %89

42:                                               ; preds = %38
  br label %43

43:                                               ; preds = %42, %35
  %44 = load i32, ptr %14, align 4, !tbaa !8
  %45 = getelementptr inbounds nuw %struct.llama_adapter_cvec, ptr %20, i32 0, i32 0
  store i32 %44, ptr %45, align 8, !tbaa !10
  %46 = load i32, ptr %15, align 4, !tbaa !8
  %47 = getelementptr inbounds nuw %struct.llama_adapter_cvec, ptr %20, i32 0, i32 1
  store i32 %46, ptr %47, align 4, !tbaa !28
  call void @llvm.lifetime.start.p0(i64 8, ptr %18) #17
  store i64 1, ptr %18, align 8, !tbaa !35
  br label %48

48:                                               ; preds = %85, %43
  %49 = load i64, ptr %18, align 8, !tbaa !35
  %50 = load ptr, ptr %16, align 8, !tbaa !41
  %51 = getelementptr inbounds nuw %struct.llama_hparams, ptr %50, i32 0, i32 7
  %52 = load i32, ptr %51, align 4, !tbaa !47
  %53 = zext i32 %52 to i64
  %54 = icmp ult i64 %49, %53
  br i1 %54, label %56, label %55

55:                                               ; preds = %48
  store i32 2, ptr %17, align 4
  call void @llvm.lifetime.end.p0(i64 8, ptr %18) #17
  br label %88

56:                                               ; preds = %48
  call void @llvm.lifetime.start.p0(i64 8, ptr %19) #17
  %57 = load i32, ptr %13, align 4, !tbaa !8
  %58 = sext i32 %57 to i64
  %59 = load i64, ptr %18, align 8, !tbaa !35
  %60 = sub i64 %59, 1
  %61 = mul i64 %58, %60
  store i64 %61, ptr %19, align 8, !tbaa !35
  %62 = load i64, ptr %19, align 8, !tbaa !35
  %63 = load i32, ptr %13, align 4, !tbaa !8
  %64 = sext i32 %63 to i64
  %65 = add i64 %62, %64
  %66 = load i64, ptr %12, align 8, !tbaa !35
  %67 = icmp ule i64 %65, %66
  br i1 %67, label %68, label %84

68:                                               ; preds = %56
  %69 = getelementptr inbounds nuw %struct.llama_adapter_cvec, ptr %20, i32 0, i32 4
  %70 = load i64, ptr %18, align 8, !tbaa !35
  %71 = call noundef nonnull align 8 dereferenceable(8) ptr @_ZNSt6vectorIP11ggml_tensorSaIS1_EEixEm(ptr noundef nonnull align 8 dereferenceable(24) %69, i64 noundef %70) #17
  %72 = load ptr, ptr %71, align 8, !tbaa !29
  %73 = load ptr, ptr %11, align 8, !tbaa !94
  %74 = load i64, ptr %19, align 8, !tbaa !35
  %75 = getelementptr inbounds nuw float, ptr %73, i64 %74
  %76 = load i32, ptr %13, align 4, !tbaa !8
  %77 = sext i32 %76 to i64
  %78 = getelementptr inbounds nuw %struct.llama_adapter_cvec, ptr %20, i32 0, i32 4
  %79 = load i64, ptr %18, align 8, !tbaa !35
  %80 = call noundef nonnull align 8 dereferenceable(8) ptr @_ZNSt6vectorIP11ggml_tensorSaIS1_EEixEm(ptr noundef nonnull align 8 dereferenceable(24) %78, i64 noundef %79) #17
  %81 = load ptr, ptr %80, align 8, !tbaa !29
  %82 = call i64 @ggml_element_size(ptr noundef %81)
  %83 = mul i64 %77, %82
  call void @ggml_backend_tensor_set(ptr noundef %72, ptr noundef %75, i64 noundef 0, i64 noundef %83)
  br label %84

84:                                               ; preds = %68, %56
  call void @llvm.lifetime.end.p0(i64 8, ptr %19) #17
  br label %85

85:                                               ; preds = %84
  %86 = load i64, ptr %18, align 8, !tbaa !35
  %87 = add i64 %86, 1
  store i64 %87, ptr %18, align 8, !tbaa !35
  br label %48, !llvm.loop !96

88:                                               ; preds = %55
  store i32 0, ptr %8, align 4
  store i32 1, ptr %17, align 4
  br label %89

89:                                               ; preds = %88, %41, %34, %25
  call void @llvm.lifetime.end.p0(i64 8, ptr %16) #17
  %90 = load i32, ptr %8, align 4
  ret i32 %90
}