; Function Attrs: mustprogress uwtable
define noundef range(i32 0, 2) i32 @_ZN18llama_adapter_cvec5applyERK11llama_modelPKfmiii(ptr noundef nonnull align 8 captures(none) dereferenceable(80) %0, ptr noundef nonnull align 8 dereferenceable(6784) %1, ptr noundef %2, i64 noundef %3, i32 noundef %4, i32 noundef %5, i32 noundef %6) local_unnamed_addr #1 align 2 {
  %8 = icmp eq ptr %2, null
  br i1 %8, label %9, label %11

9:                                                ; preds = %7
  store i32 -1, ptr %0, align 8, !tbaa !82
  %10 = getelementptr inbounds nuw i8, ptr %0, i64 4
  store i32 -1, ptr %10, align 4, !tbaa !93
  br label %.loopexit

11:                                               ; preds = %7
  %12 = getelementptr inbounds nuw i8, ptr %1, i64 48
  %13 = load i32, ptr %12, align 8, !tbaa !63
  %.not = icmp eq i32 %4, %13
  br i1 %.not, label %15, label %14

14:                                               ; preds = %11
  tail call void (i32, ptr, ...) @_Z18llama_log_internal14ggml_log_levelPKcz(i32 noundef 4, ptr noundef nonnull @.str.7, ptr noundef nonnull @__func__._ZN18llama_adapter_cvec5applyERK11llama_modelPKfmiii)
  br label %.loopexit

15:                                               ; preds = %11
  %16 = getelementptr inbounds nuw i8, ptr %0, i64 56
  %17 = load ptr, ptr %16, align 8, !tbaa !13
  %18 = getelementptr inbounds nuw i8, ptr %0, i64 64
  %19 = load ptr, ptr %18, align 8, !tbaa !13
  %20 = icmp eq ptr %17, %19
  br i1 %20, label %21, label %23

21:                                               ; preds = %15
  %22 = tail call noundef zeroext i1 @_ZN18llama_adapter_cvec4initERK11llama_model(ptr noundef nonnull align 8 dereferenceable(80) %0, ptr noundef nonnull align 8 dereferenceable(6784) %1)
  br i1 %22, label %23, label %.loopexit

23:                                               ; preds = %21, %15
  store i32 %5, ptr %0, align 8, !tbaa !82
  %24 = getelementptr inbounds nuw i8, ptr %0, i64 4
  store i32 %6, ptr %24, align 4, !tbaa !93
  %25 = getelementptr inbounds nuw i8, ptr %1, i64 56
  %26 = load i32, ptr %25, align 8, !tbaa !28
  %27 = icmp ugt i32 %26, 1
  br i1 %27, label %.lr.ph, label %.loopexit

.lr.ph:                                           ; preds = %23
  %28 = sext i32 %4 to i64
  br label %29

29:                                               ; preds = %.lr.ph, %41
  %30 = phi i32 [ %26, %.lr.ph ], [ %42, %41 ]
  %.02125 = phi i64 [ 1, %.lr.ph ], [ %43, %41 ]
  %31 = mul nsw i64 %.02125, %28
  %.not24 = icmp ugt i64 %31, %3
  br i1 %.not24, label %41, label %32

32:                                               ; preds = %29
  %33 = add nsw i64 %.02125, -1
  %34 = mul nsw i64 %33, %28
  %35 = load ptr, ptr %16, align 8, !tbaa !10
  %36 = getelementptr inbounds nuw ptr, ptr %35, i64 %.02125
  %37 = load ptr, ptr %36, align 8, !tbaa !11
  %38 = getelementptr inbounds nuw float, ptr %2, i64 %34
  %39 = tail call i64 @ggml_element_size(ptr noundef %37)
  %40 = mul i64 %39, %28
  tail call void @ggml_backend_tensor_set(ptr noundef %37, ptr noundef nonnull %38, i64 noundef 0, i64 noundef %40)
  %.pre = load i32, ptr %25, align 8, !tbaa !28
  br label %41

41:                                               ; preds = %32, %29
  %42 = phi i32 [ %.pre, %32 ], [ %30, %29 ]
  %43 = add nuw nsw i64 %.02125, 1
  %44 = zext i32 %42 to i64
  %45 = icmp samesign ult i64 %43, %44
  br i1 %45, label %29, label %.loopexit, !llvm.loop !94

.loopexit:                                        ; preds = %41, %23, %21, %14, %9
  %.0 = phi i32 [ 0, %9 ], [ 1, %14 ], [ 1, %21 ], [ 0, %23 ], [ 0, %41 ]
  ret i32 %.0
}